(dp0
S'filter'
p1
(dp2
S'1184_8'
p3
(dp4
S'canid'
p5
I1184
sS'dlc'
p6
I8
sS'hwf'
p7
I1
sS'count'
p8
I503
sS'swf'
p9
I0
sS'anno'
p10
V20ms lots of zeros
p11
sS'swr'
p12
I0
sS'hwr'
p13
I0
ssS'16_6'
p14
(dp15
g5
I16
sg6
I6
sg7
I0
sg8
I22
sg9
I0
sg10
Vonly at startup 1 (3 times)
p16
sg12
I0
sg13
I0
ssS'1160_8'
p17
(dp18
g5
I1160
sg6
I8
sg7
I1
sg8
I705
sg9
I0
sg10
S''
p19
sg12
I0
sg13
I0
ssS'1152_8'
p20
(dp21
g5
I1152
sg6
I8
sg7
I1
sg8
I269
sg9
I0
sg10
V20ms b3 is fuel consumption
p22
sg12
I0
sg13
I0
ssS'1504_8'
p23
(dp24
g5
I1504
sg6
I8
sg7
I0
sg8
I432
sg9
I0
sg10
V~100ms 1
p25
sg12
I0
sg13
I0
ssS'640_8'
p26
(dp27
g5
I640
sg6
I8
sg7
I1
sg8
I1011
sg9
I0
sg10
V10ms engine speed b4:b3
p28
sg12
I0
sg13
I0
ssS'1192_8'
p29
(dp30
g5
I1192
sg6
I8
sg7
I1
sg8
I216
sg9
I0
sg10
g19
sg12
I0
sg13
I0
ssS'1312_8'
p31
(dp32
g5
I1312
sg6
I8
sg7
I0
sg8
I127
sg9
I0
sg10
V200ms
p33
sg12
I0
sg13
I0
ssS'1344_8'
p34
(dp35
g5
I1344
sg6
I8
sg7
I1
sg8
I292
sg9
I0
sg10
g19
sg12
I0
sg13
I0
ssS'1440_8'
p36
(dp37
g5
I1440
sg6
I8
sg7
I1
sg8
I532
sg9
I0
sg10
V20ms following 4a0
p38
sg12
I0
sg13
I0
ssS'896_8'
p39
(dp40
g5
I896
sg6
I8
sg7
I1
sg8
I833
sg9
I0
sg10
g19
sg12
I0
sg13
I0
ssS'648_8'
p41
(dp42
g5
I648
sg6
I8
sg7
I1
sg8
I376
sg9
I0
sg10
V10ms (slow start)
p43
sg12
I0
sg13
I0
ssS'1416_8'
p44
(dp45
g5
I1416
sg6
I8
sg7
I1
sg8
I574
sg9
I0
sg10
V20ms (slow start)
p46
sg12
I0
sg13
I0
ssS'1408_8'
p47
(dp48
g5
I1408
sg6
I8
sg7
I0
sg8
I22
sg9
I0
sg10
g19
sg12
I0
sg13
I0
ssS'1056_8'
p49
(dp50
g5
I1056
sg6
I8
sg7
I0
sg8
I55
sg9
I0
sg10
V200ms for a while at start
p51
sg12
I0
sg13
I0
ssS'1488_6'
p52
(dp53
g5
I1488
sg6
I6
sg7
I1
sg8
I194
sg9
I0
sg10
V~ 100ms 2
p54
sg12
I0
sg13
I0
ssS'416_8'
p55
(dp56
g5
I416
sg6
I8
sg7
I0
sg8
I888
sg9
I0
sg10
V20ms ABS ? last nibble a counter
p57
sg12
I0
sg13
I0
ssS'800_8'
p58
(dp59
g5
I800
sg6
I8
sg7
I1
sg8
I733
sg9
I0
sg10
g19
sg12
I0
sg13
I0
ssS'17_6'
p60
(dp61
g5
I17
sg6
I6
sg7
I0
sg8
I18
sg9
I0
sg10
Vonly at startup 2 (3 times)
p62
sg12
I0
sg13
I0
ssS'906_4'
p63
(dp64
g5
I906
sg6
I4
sg7
I1
sg8
I469
sg9
I0
sg10
V20 ms
p65
sg12
I0
sg13
I0
ssS'194_8'
p66
(dp67
g5
I194
sg6
I8
sg7
I1
sg8
I680
sg9
I0
sg10
VESP ?
p68
sg12
I0
sg13
I0
sssS'annotations'
p69
(dp70
S'1184_8'
p71
g11
sS'16_6'
p72
g16
sS'1152_8'
p73
g22
sS'1504_8'
p74
g25
sS'640_8'
p75
g28
sS'1312_8'
p76
g33
sS'17_6'
p77
g62
sS'1440_8'
p78
g38
sS'1416_8'
p79
g46
sS'648_8'
p80
g43
sS'906_4'
p81
g65
sS'1056_8'
p82
g51
sS'1488_6'
p83
g54
sS'416_8'
p84
g57
sS'194_8'
p85
g68
ssS'relay'
p86
(dp87
s.